target datalayout = "e-m:e-p270:32:32-p271:32:32-p272:64:64-i64:64-i128:128-f80:128-n8:16:32:64-S128"
target triple = "x86_64-pc-linux-gnu"

%struct.__va_list_tag = type { i32, i32, ptr, ptr }

@PyExc_TypeError = external global ptr, align 8

; Function Attrs: mustprogress uwtable
define hidden noundef ptr @_Z8failmsgpPKcz(ptr noundef %0, ...) #4 {
  %2 = alloca ptr, align 8
  %3 = alloca [1000 x i8], align 16
  %4 = alloca [1 x %struct.__va_list_tag], align 16
  store ptr %0, ptr %2, align 8
  %5 = getelementptr inbounds [1 x %struct.__va_list_tag], ptr %4, i64 0, i64 0
  call void @llvm.va_start.p0(ptr %5)
  %6 = getelementptr inbounds [1000 x i8], ptr %3, i64 0, i64 0
  %7 = load ptr, ptr %2, align 8
  %8 = getelementptr inbounds [1 x %struct.__va_list_tag], ptr %4, i64 0, i64 0
  %9 = call i32 @vsnprintf(ptr noundef %6, i64 noundef 1000, ptr noundef %7, ptr noundef %8) #3
  %10 = getelementptr inbounds [1 x %struct.__va_list_tag], ptr %4, i64 0, i64 0
  call void @llvm.va_end.p0(ptr %10)
  %11 = load ptr, ptr @PyExc_TypeError, align 8
  %12 = getelementptr inbounds [1000 x i8], ptr %3, i64 0, i64 0
  call void @_Z12emit_failmsgP7_objectPKc(ptr noundef %11, ptr noundef %12)
  ret ptr null
}